; Function Attrs: mustprogress nofree norecurse nosync nounwind willreturn memory(argmem: readwrite) uwtable
define void @_ZN15b2MotorJointDef10InitializeEP6b2BodyS1_(ptr nocapture noundef nonnull writeonly align 8 dereferenceable(60) %this, ptr noundef %bA, ptr noundef %bB) local_unnamed_addr #0 align 2 {
entry:
  %bodyA = getelementptr inbounds i8, ptr %this, i64 16
  store ptr %bA, ptr %bodyA, align 8
  %bodyB = getelementptr inbounds i8, ptr %this, i64 24
  store ptr %bB, ptr %bodyB, align 8
  %m_xf.i = getelementptr inbounds i8, ptr %bB, i64 12
  %0 = load float, ptr %m_xf.i, align 4
  %m_xf.i.sroa_idx = getelementptr inbounds i8, ptr %bB, i64 16
  %1 = load float, ptr %m_xf.i.sroa_idx, align 4
  %m_xf.i1 = getelementptr inbounds i8, ptr %bA, i64 12
  %2 = load float, ptr %m_xf.i1, align 4
  %sub.i.i = fsub float %0, %2
  %y3.i.i = getelementptr inbounds i8, ptr %bA, i64 16
  %3 = load float, ptr %y3.i.i, align 4
  %sub4.i.i = fsub float %1, %3
  %q.i.i = getelementptr inbounds i8, ptr %bA, i64 20
  %4 = load <2 x float>, ptr %q.i.i, align 4
  %5 = extractelement <2 x float> %4, i64 0
  %fneg.i.i = fneg float %5
  %6 = insertelement <2 x float> poison, float %sub4.i.i, i64 0
  %7 = shufflevector <2 x float> %6, <2 x float> poison, <2 x i32> zeroinitializer
  %8 = fmul <2 x float> %7, %4
  %9 = shufflevector <2 x float> %4, <2 x float> poison, <2 x i32> <i32 1, i32 poison>
  %10 = insertelement <2 x float> %9, float %fneg.i.i, i64 1
  %11 = insertelement <2 x float> poison, float %sub.i.i, i64 0
  %12 = shufflevector <2 x float> %11, <2 x float> poison, <2 x i32> zeroinitializer
  %13 = tail call <2 x float> @llvm.fmuladd.v2f32(<2 x float> %10, <2 x float> %12, <2 x float> %8)
  %linearOffset = getelementptr inbounds i8, ptr %this, i64 36
  store <2 x float> %13, ptr %linearOffset, align 4
  %a.i = getelementptr inbounds i8, ptr %bA, i64 56
  %14 = load float, ptr %a.i, align 4
  %a.i2 = getelementptr inbounds i8, ptr %bB, i64 56
  %15 = load float, ptr %a.i2, align 4
  %sub = fsub float %15, %14
  %angularOffset = getelementptr inbounds i8, ptr %this, i64 44
  store float %sub, ptr %angularOffset, align 4
  ret void
}